target datalayout = "e-m:e-p270:32:32-p271:32:32-p272:64:64-i64:64-i128:128-f80:128-n8:16:32:64-S128"
target triple = "x86_64-pc-linux-gnu"

@pmix_mca_base_var_file_list = internal global ptr null, align 8

; Function Attrs: nounwind uwtable
define internal ptr @append_filename_to_list(ptr noundef %0) #0 {
  %2 = alloca ptr, align 8
  %3 = alloca ptr, align 8
  %4 = alloca i32, align 4
  %5 = alloca i32, align 4
  %6 = alloca i32, align 4
  store ptr %0, ptr %3, align 8, !tbaa !47
  call void @llvm.lifetime.start.p0(i64 4, ptr %4) #15
  call void @llvm.lifetime.start.p0(i64 4, ptr %5) #15
  %7 = load ptr, ptr %3, align 8, !tbaa !47
  %8 = call i32 @PMIx_Argv_append_unique_nosize(ptr noundef @pmix_mca_base_var_file_list, ptr noundef %7)
  %9 = load ptr, ptr @pmix_mca_base_var_file_list, align 8, !tbaa !48
  %10 = call i32 @PMIx_Argv_count(ptr noundef %9)
  store i32 %10, ptr %5, align 4, !tbaa !18
  %11 = load i32, ptr %5, align 4, !tbaa !18
  %12 = sub nsw i32 %11, 1
  store i32 %12, ptr %4, align 4, !tbaa !18
  br label %13

13:                                               ; preds = %32, %1
  %14 = load i32, ptr %4, align 4, !tbaa !18
  %15 = icmp sge i32 %14, 0
  br i1 %15, label %16, label %35

16:                                               ; preds = %13
  %17 = load ptr, ptr @pmix_mca_base_var_file_list, align 8, !tbaa !48
  %18 = load i32, ptr %4, align 4, !tbaa !18
  %19 = sext i32 %18 to i64
  %20 = getelementptr inbounds ptr, ptr %17, i64 %19
  %21 = load ptr, ptr %20, align 8, !tbaa !47
  %22 = load ptr, ptr %3, align 8, !tbaa !47
  %23 = call i32 @strcmp(ptr noundef %21, ptr noundef %22) #16
  %24 = icmp eq i32 0, %23
  br i1 %24, label %25, label %31

25:                                               ; preds = %16
  %26 = load ptr, ptr @pmix_mca_base_var_file_list, align 8, !tbaa !48
  %27 = load i32, ptr %4, align 4, !tbaa !18
  %28 = sext i32 %27 to i64
  %29 = getelementptr inbounds ptr, ptr %26, i64 %28
  %30 = load ptr, ptr %29, align 8, !tbaa !47
  store ptr %30, ptr %2, align 8
  store i32 1, ptr %6, align 4
  br label %36

31:                                               ; preds = %16
  br label %32

32:                                               ; preds = %31
  %33 = load i32, ptr %4, align 4, !tbaa !18
  %34 = add nsw i32 %33, -1
  store i32 %34, ptr %4, align 4, !tbaa !18
  br label %13, !llvm.loop !135

35:                                               ; preds = %13
  store ptr null, ptr %2, align 8
  store i32 1, ptr %6, align 4
  br label %36

36:                                               ; preds = %35, %25
  call void @llvm.lifetime.end.p0(i64 4, ptr %5) #15
  call void @llvm.lifetime.end.p0(i64 4, ptr %4) #15
  %37 = load ptr, ptr %2, align 8
  ret ptr %37
}

; Function Attrs: nounwind uwtable
define internal i32 @read_files(ptr noundef %0, ptr noundef %1, i8 noundef signext %2) #0 {
  %4 = alloca i32, align 4
  %5 = alloca ptr, align 8
  %6 = alloca ptr, align 8
  %7 = alloca i8, align 1
  %8 = alloca ptr, align 8
  %9 = alloca i32, align 4
  %10 = alloca i32, align 4
  %11 = alloca i32, align 4
  %12 = alloca i32, align 4
  %13 = alloca ptr, align 8
  store ptr %0, ptr %5, align 8, !tbaa !47
  store ptr %1, ptr %6, align 8, !tbaa !72
  store i8 %2, ptr %7, align 1, !tbaa !24
  call void @llvm.lifetime.start.p0(i64 8, ptr %8) #15
  call void @llvm.lifetime.start.p0(i64 4, ptr %9) #15
  call void @llvm.lifetime.start.p0(i64 4, ptr %10) #15
  call void @llvm.lifetime.start.p0(i64 4, ptr %11) #15
  %14 = load ptr, ptr %5, align 8, !tbaa !47
  %15 = icmp eq ptr null, %14
  br i1 %15, label %16, label %17

16:                                               ; preds = %3
  store i32 0, ptr %4, align 4
  store i32 1, ptr %12, align 4
  br label %61

17:                                               ; preds = %3
  %18 = load ptr, ptr %5, align 8, !tbaa !47
  %19 = load i8, ptr %7, align 1, !tbaa !24
  %20 = sext i8 %19 to i32
  %21 = call ptr @PMIx_Argv_split(ptr noundef %18, i32 noundef %20)
  store ptr %21, ptr %8, align 8, !tbaa !48
  %22 = load ptr, ptr %8, align 8, !tbaa !48
  %23 = icmp ne ptr %22, null
  br i1 %23, label %25, label %24

24:                                               ; preds = %17
  store i32 -29, ptr %4, align 4
  store i32 1, ptr %12, align 4
  br label %61

25:                                               ; preds = %17
  %26 = load ptr, ptr %8, align 8, !tbaa !48
  %27 = call i32 @PMIx_Argv_count(ptr noundef %26)
  store i32 %27, ptr %10, align 4, !tbaa !18
  %28 = load i32, ptr %10, align 4, !tbaa !18
  %29 = sub nsw i32 %28, 1
  store i32 %29, ptr %9, align 4, !tbaa !18
  br label %30

30:                                               ; preds = %55, %25
  %31 = load i32, ptr %9, align 4, !tbaa !18
  %32 = icmp sge i32 %31, 0
  br i1 %32, label %33, label %58

33:                                               ; preds = %30
  call void @llvm.lifetime.start.p0(i64 8, ptr %13) #15
  %34 = load ptr, ptr %8, align 8, !tbaa !48
  %35 = load i32, ptr %9, align 4, !tbaa !18
  %36 = sext i32 %35 to i64
  %37 = getelementptr inbounds ptr, ptr %34, i64 %36
  %38 = load ptr, ptr %37, align 8, !tbaa !47
  %39 = call ptr @append_filename_to_list(ptr noundef %38)
  store ptr %39, ptr %13, align 8, !tbaa !47
  %40 = load ptr, ptr %13, align 8, !tbaa !47
  %41 = load ptr, ptr %6, align 8, !tbaa !72
  %42 = call i32 @pmix_mca_base_parse_paramfile(ptr noundef %40, ptr noundef %41)
  store i32 %42, ptr %11, align 4, !tbaa !18
  %43 = load i32, ptr %11, align 4, !tbaa !18
  %44 = icmp ne i32 0, %43
  br i1 %44, label %45, label %51

45:                                               ; preds = %33
  %46 = load i32, ptr %11, align 4, !tbaa !18
  %47 = icmp ne i32 -46, %46
  br i1 %47, label %48, label %51

48:                                               ; preds = %45
  %49 = load ptr, ptr %8, align 8, !tbaa !48
  call void @PMIx_Argv_free(ptr noundef %49)
  %50 = load i32, ptr %11, align 4, !tbaa !18
  store i32 %50, ptr %4, align 4
  store i32 1, ptr %12, align 4
  br label %52

51:                                               ; preds = %45, %33
  store i32 0, ptr %12, align 4
  br label %52

52:                                               ; preds = %51, %48
  call void @llvm.lifetime.end.p0(i64 8, ptr %13) #15
  %53 = load i32, ptr %12, align 4
  switch i32 %53, label %61 [
    i32 0, label %54
  ]

54:                                               ; preds = %52
  br label %55

55:                                               ; preds = %54
  %56 = load i32, ptr %9, align 4, !tbaa !18
  %57 = add nsw i32 %56, -1
  store i32 %57, ptr %9, align 4, !tbaa !18
  br label %30, !llvm.loop !74

58:                                               ; preds = %30
  %59 = load ptr, ptr %8, align 8, !tbaa !48
  call void @PMIx_Argv_free(ptr noundef %59)
  %60 = call i32 @pmix_mca_base_internal_env_store()
  store i32 0, ptr %4, align 4
  store i32 1, ptr %12, align 4
  br label %61

61:                                               ; preds = %58, %52, %24, %16
  call void @llvm.lifetime.end.p0(i64 4, ptr %11) #15
  call void @llvm.lifetime.end.p0(i64 4, ptr %10) #15
  call void @llvm.lifetime.end.p0(i64 4, ptr %9) #15
  call void @llvm.lifetime.end.p0(i64 8, ptr %8) #15
  %62 = load i32, ptr %4, align 4
  ret i32 %62
}