; Function Attrs: nounwind uwtable
define internal fastcc i32 @read_files(ptr noundef %0, ptr noundef %1, i8 noundef signext range(i8 44, 59) %2) unnamed_addr #0 {
  %4 = icmp eq ptr %0, null
  br i1 %4, label %.loopexit, label %5

5:                                                ; preds = %3
  %6 = zext nneg i8 %2 to i32
  %7 = tail call ptr @PMIx_Argv_split(ptr noundef nonnull %0, i32 noundef %6) #25
  %.not = icmp eq ptr %7, null
  br i1 %.not, label %.loopexit, label %8

8:                                                ; preds = %5
  %9 = tail call i32 @PMIx_Argv_count(ptr noundef nonnull %7) #25
  %10 = icmp sgt i32 %9, 0
  br i1 %10, label %.lr.ph.preheader, label %._crit_edge

.lr.ph.preheader:                                 ; preds = %8
  %11 = zext nneg i32 %9 to i64
  br label %.lr.ph

.lr.ph:                                           ; preds = %.lr.ph.preheader, %31
  %indvars.iv = phi i64 [ %11, %.lr.ph.preheader ], [ %indvars.iv.next, %31 ]
  %.127 = phi i32 [ undef, %.lr.ph.preheader ], [ %.2, %31 ]
  %indvars.iv.next = add nsw i64 %indvars.iv, -1
  %12 = getelementptr inbounds nuw ptr, ptr %7, i64 %indvars.iv.next
  %13 = load ptr, ptr %12, align 8, !tbaa !51
  %14 = tail call i32 @PMIx_Argv_append_unique_nosize(ptr noundef nonnull @pmix_mca_base_var_file_list, ptr noundef %13) #25
  %15 = load ptr, ptr @pmix_mca_base_var_file_list, align 8, !tbaa !64
  %16 = tail call i32 @PMIx_Argv_count(ptr noundef %15) #25
  %17 = load ptr, ptr @pmix_mca_base_var_file_list, align 8
  %18 = zext i32 %16 to i64
  br label %19

19:                                               ; preds = %22, %.lr.ph
  %indvars.iv.i = phi i64 [ %23, %22 ], [ %18, %.lr.ph ]
  %20 = trunc nuw i64 %indvars.iv.i to i32
  %21 = icmp sgt i32 %20, 0
  br i1 %21, label %22, label %append_filename_to_list.exit

22:                                               ; preds = %19
  %23 = add nsw i64 %indvars.iv.i, -1
  %24 = getelementptr inbounds nuw ptr, ptr %17, i64 %23
  %25 = load ptr, ptr %24, align 8, !tbaa !51
  %26 = tail call i32 @strcmp(ptr noundef nonnull dereferenceable(1) %25, ptr noundef nonnull dereferenceable(1) %13) #30
  %27 = icmp eq i32 %26, 0
  br i1 %27, label %append_filename_to_list.exit, label %19, !llvm.loop !67

append_filename_to_list.exit:                     ; preds = %19, %22
  %.0.i = phi ptr [ %25, %22 ], [ null, %19 ]
  %28 = tail call i32 @pmix_mca_base_parse_paramfile(ptr noundef %.0.i, ptr noundef %1) #25
  switch i32 %28, label %29 [
    i32 -46, label %30
    i32 0, label %30
  ]

29:                                               ; preds = %append_filename_to_list.exit
  tail call void @PMIx_Argv_free(ptr noundef nonnull %7) #25
  br label %30

30:                                               ; preds = %append_filename_to_list.exit, %append_filename_to_list.exit, %29
  %.2 = phi i32 [ %28, %29 ], [ %.127, %append_filename_to_list.exit ], [ %.127, %append_filename_to_list.exit ]
  switch i32 %28, label %.loopexit [
    i32 -46, label %31
    i32 0, label %31
  ]

31:                                               ; preds = %30, %30
  %32 = icmp sgt i64 %indvars.iv, 1
  br i1 %32, label %.lr.ph, label %._crit_edge, !llvm.loop !68

._crit_edge:                                      ; preds = %31, %8
  tail call void @PMIx_Argv_free(ptr noundef nonnull %7) #25
  %33 = tail call i32 @pmix_mca_base_internal_env_store() #25
  br label %.loopexit

.loopexit:                                        ; preds = %30, %5, %3, %._crit_edge
  %.0 = phi i32 [ 0, %._crit_edge ], [ 0, %3 ], [ -29, %5 ], [ %.2, %30 ]
  ret i32 %.0
}